; Function Attrs: mustprogress uwtable
define noundef zeroext i1 @_ZN3zmq4lb_t7has_outEv(ptr noundef nonnull align 8 captures(none) dereferenceable(42) %0) local_unnamed_addr #6 align 2 {
  %2 = getelementptr inbounds nuw i8, ptr %0, i64 40
  %3 = load i8, ptr %2, align 8, !tbaa !30, !range !31, !noundef !32
  %4 = trunc nuw i8 %3 to i1
  br i1 %4, label %.loopexit, label %.preheader

.preheader:                                       ; preds = %1
  %5 = getelementptr inbounds nuw i8, ptr %0, i64 24
  %6 = load i64, ptr %5, align 8, !tbaa !21
  %.not2 = icmp eq i64 %6, 0
  br i1 %.not2, label %.loopexit, label %.lr.ph

.lr.ph:                                           ; preds = %.preheader
  %7 = getelementptr inbounds nuw i8, ptr %0, i64 32
  %.pre = load i64, ptr %7, align 8, !tbaa !29
  %.pre5 = load ptr, ptr %0, align 8, !tbaa !12
  br label %8

8:                                                ; preds = %.lr.ph, %32
  %9 = phi ptr [ %.pre5, %.lr.ph ], [ %18, %32 ]
  %10 = phi i64 [ %.pre, %.lr.ph ], [ %33, %32 ]
  %11 = getelementptr inbounds nuw ptr, ptr %9, i64 %10
  %12 = load ptr, ptr %11, align 8, !tbaa !19
  %13 = tail call noundef zeroext i1 @_ZN3zmq6pipe_t11check_writeEv(ptr noundef nonnull align 8 dereferenceable(328) %12)
  br i1 %13, label %.loopexit, label %14

14:                                               ; preds = %8
  %15 = load i64, ptr %5, align 8, !tbaa !21
  %16 = add i64 %15, -1
  store i64 %16, ptr %5, align 8, !tbaa !21
  %17 = load i64, ptr %7, align 8, !tbaa !29
  %18 = load ptr, ptr %0, align 8, !tbaa !12
  %19 = getelementptr inbounds nuw ptr, ptr %18, i64 %17
  %20 = load ptr, ptr %19, align 8, !tbaa !19
  %.not.i = icmp eq ptr %20, null
  br i1 %.not.i, label %24, label %21

21:                                               ; preds = %14
  %22 = trunc i64 %16 to i32
  %23 = getelementptr inbounds nuw i8, ptr %20, i64 48
  store i32 %22, ptr %23, align 8, !tbaa !15
  br label %24

24:                                               ; preds = %21, %14
  %25 = getelementptr inbounds nuw ptr, ptr %18, i64 %16
  %26 = load ptr, ptr %25, align 8, !tbaa !19
  %.not8.i = icmp eq ptr %26, null
  br i1 %.not8.i, label %_ZN3zmq7array_tINS_6pipe_tELi2EE4swapEmm.exit, label %27

27:                                               ; preds = %24
  %28 = trunc i64 %17 to i32
  %29 = getelementptr inbounds nuw i8, ptr %26, i64 48
  store i32 %28, ptr %29, align 8, !tbaa !15
  br label %_ZN3zmq7array_tINS_6pipe_tELi2EE4swapEmm.exit

_ZN3zmq7array_tINS_6pipe_tELi2EE4swapEmm.exit:    ; preds = %24, %27
  store ptr %26, ptr %19, align 8, !tbaa !19
  store ptr %20, ptr %25, align 8, !tbaa !19
  %30 = icmp eq i64 %17, %16
  br i1 %30, label %31, label %32

31:                                               ; preds = %_ZN3zmq7array_tINS_6pipe_tELi2EE4swapEmm.exit
  store i64 0, ptr %7, align 8, !tbaa !29
  br label %32

32:                                               ; preds = %31, %_ZN3zmq7array_tINS_6pipe_tELi2EE4swapEmm.exit
  %33 = phi i64 [ 0, %31 ], [ %17, %_ZN3zmq7array_tINS_6pipe_tELi2EE4swapEmm.exit ]
  %.not = icmp eq i64 %16, 0
  br i1 %.not, label %.loopexit, label %8, !llvm.loop !37

.loopexit:                                        ; preds = %8, %32, %.preheader, %1
  %.0 = phi i1 [ true, %1 ], [ false, %.preheader ], [ %13, %32 ], [ %13, %8 ]
  ret i1 %.0
}